; Function Attrs: mustprogress uwtable
define void @_ZNK6icu_756number4impl15CurrencySymbols10loadSymbolE14UCurrNameStyleR10UErrorCode(ptr noalias sret(%"class.icu_75::UnicodeString") align 8 %agg.result, ptr noundef nonnull align 8 dereferenceable(232) %this, i32 noundef %selector, ptr noundef nonnull align 4 dereferenceable(4) %status) local_unnamed_addr #1 align 2 personality ptr @__gxx_personality_v0 {
entry:
  %symbolLen = alloca i32, align 4
  %agg.tmp = alloca %"class.icu_75::ConstChar16Ptr", align 8
  %isoCode.i = getelementptr inbounds i8, ptr %this, i64 28
  store i32 0, ptr %symbolLen, align 4
  %fLocaleName = getelementptr inbounds i8, ptr %this, i64 40
  %0 = load ptr, ptr %fLocaleName, align 8
  %call3 = call ptr @ucurr_getName_75(ptr noundef nonnull %isoCode.i, ptr noundef %0, i32 noundef %selector, ptr noundef null, ptr noundef nonnull %symbolLen, ptr noundef nonnull %status)
  %cmp = icmp eq ptr %call3, %isoCode.i
  br i1 %cmp, label %if.then, label %if.else

if.then:                                          ; preds = %entry
  call void @_ZN6icu_7513UnicodeStringC1EPKDsi(ptr noundef nonnull align 8 dereferenceable(64) %agg.result, ptr noundef nonnull %isoCode.i, i32 noundef 3)
  br label %return

if.else:                                          ; preds = %entry
  store ptr %call3, ptr %agg.tmp, align 8
  %1 = load i32, ptr %symbolLen, align 4
  invoke void @_ZN6icu_7513UnicodeStringC1EaNS_14ConstChar16PtrEi(ptr noundef nonnull align 8 dereferenceable(64) %agg.result, i8 noundef signext 1, ptr noundef nonnull %agg.tmp, i32 noundef %1)
          to label %invoke.cont unwind label %lpad

invoke.cont:                                      ; preds = %if.else
  %2 = load ptr, ptr %agg.tmp, align 8
  call void asm sideeffect "", "rm,~{memory},~{dirflag},~{fpsr},~{flags}"(ptr %2) #11, !srcloc !7
  br label %return

lpad:                                             ; preds = %if.else
  %3 = landingpad { ptr, i32 }
          cleanup
  %4 = load ptr, ptr %agg.tmp, align 8
  call void asm sideeffect "", "rm,~{memory},~{dirflag},~{fpsr},~{flags}"(ptr %4) #11, !srcloc !7
  resume { ptr, i32 } %3

return:                                           ; preds = %invoke.cont, %if.then
  ret void
}